target datalayout = "e-m:e-p270:32:32-p271:32:32-p272:64:64-i64:64-i128:128-f80:128-n8:16:32:64-S128"
target triple = "x86_64-unknown-linux-gnu"

%struct.ggml_type_traits_t = type { ptr, i32, i64, i8, ptr, ptr, ptr, ptr, i32 }
%class.anon.542 = type { %struct.ggml_type_traits_t }
%"struct.std::thread::_State_impl" = type { %"struct.std::thread::_State", %"struct.std::thread::_Invoker" }
%"struct.std::thread::_State" = type { ptr }
%"struct.std::thread::_Invoker" = type { %"class.std::tuple.552" }
%"class.std::tuple.552" = type { %"struct.std::_Tuple_impl.553" }
%"struct.std::_Tuple_impl.553" = type { %"struct.std::_Tuple_impl.base", %"struct.std::_Head_base.562" }
%"struct.std::_Tuple_impl.base" = type <{ %"struct.std::_Tuple_impl.555", %"struct.std::_Head_base.561" }>
%"struct.std::_Tuple_impl.555" = type { %"struct.std::_Tuple_impl.556", %"struct.std::_Head_base.560" }
%"struct.std::_Tuple_impl.556" = type { %"struct.std::_Tuple_impl.557", %"struct.std::_Head_base.559" }
%"struct.std::_Tuple_impl.557" = type { %"struct.std::_Head_base.558" }
%"struct.std::_Head_base.558" = type { i64 }
%"struct.std::_Head_base.559" = type { ptr }
%"struct.std::_Head_base.560" = type { ptr }
%"struct.std::_Head_base.561" = type { i32 }
%"struct.std::_Head_base.562" = type { %class.anon.542 }

; Function Attrs: mustprogress nounwind uwtable
define linkonce_odr noundef nonnull align 8 dereferenceable(8) ptr @_ZNSt10_Head_baseILm4EmLb0EE7_M_headERS0_(ptr noundef nonnull align 8 dereferenceable(8) %__b) #1 comdat align 2 {
entry:
  %__b.addr = alloca ptr, align 8
  store ptr %__b, ptr %__b.addr, align 8
  %0 = load ptr, ptr %__b.addr, align 8
  %_M_head_impl = getelementptr inbounds %"struct.std::_Head_base.558", ptr %0, i32 0, i32 0
  ret ptr %_M_head_impl
}

; Function Attrs: mustprogress nounwind uwtable
define linkonce_odr noundef nonnull align 8 dereferenceable(8) ptr @_ZNSt10_Head_baseILm3EPfLb0EE7_M_headERS1_(ptr noundef nonnull align 8 dereferenceable(8) %__b) #1 comdat align 2 {
entry:
  %__b.addr = alloca ptr, align 8
  store ptr %__b, ptr %__b.addr, align 8
  %0 = load ptr, ptr %__b.addr, align 8
  %_M_head_impl = getelementptr inbounds %"struct.std::_Head_base.559", ptr %0, i32 0, i32 0
  ret ptr %_M_head_impl
}

; Function Attrs: mustprogress nounwind uwtable
define linkonce_odr noundef nonnull align 8 dereferenceable(8) ptr @_ZNSt10_Head_baseILm2EPhLb0EE7_M_headERS1_(ptr noundef nonnull align 8 dereferenceable(8) %__b) #1 comdat align 2 {
entry:
  %__b.addr = alloca ptr, align 8
  store ptr %__b, ptr %__b.addr, align 8
  %0 = load ptr, ptr %__b.addr, align 8
  %_M_head_impl = getelementptr inbounds %"struct.std::_Head_base.560", ptr %0, i32 0, i32 0
  ret ptr %_M_head_impl
}

; Function Attrs: mustprogress nounwind uwtable
define linkonce_odr noundef nonnull align 4 dereferenceable(4) ptr @_ZNSt10_Head_baseILm1E9ggml_typeLb0EE7_M_headERS1_(ptr noundef nonnull align 4 dereferenceable(4) %__b) #1 comdat align 2 {
entry:
  %__b.addr = alloca ptr, align 8
  store ptr %__b, ptr %__b.addr, align 8
  %0 = load ptr, ptr %__b.addr, align 8
  %_M_head_impl = getelementptr inbounds %"struct.std::_Head_base.561", ptr %0, i32 0, i32 0
  ret ptr %_M_head_impl
}

; Function Attrs: mustprogress nounwind uwtable
define internal noundef nonnull align 8 dereferenceable(72) ptr @"_ZNSt10_Head_baseILm0EZL29llama_convert_tensor_internalP11ggml_tensorRSt6vectorI7no_initIfESaIS4_EERS2_ISt6threadSaIS8_EEmiE3$_0Lb0EE7_M_headERSD_"(ptr noundef nonnull align 8 dereferenceable(72) %__b) #1 align 2 {
entry:
  %__b.addr = alloca ptr, align 8
  store ptr %__b, ptr %__b.addr, align 8
  %0 = load ptr, ptr %__b.addr, align 8
  %_M_head_impl = getelementptr inbounds %"struct.std::_Head_base.562", ptr %0, i32 0, i32 0
  ret ptr %_M_head_impl
}

; Function Attrs: mustprogress uwtable
define internal void @"_ZZL29llama_convert_tensor_internalP11ggml_tensorRSt6vectorI7no_initIfESaIS3_EERS1_ISt6threadSaIS7_EEmiENK3$_0clE9ggml_typePhPfi"(ptr noundef nonnull align 8 dereferenceable(72) %this, i32 noundef %typ, ptr noundef %inbuf, ptr noundef %outbuf, i32 noundef %nels) #2 align 2 {
entry:
  %this.addr = alloca ptr, align 8
  %typ.addr = alloca i32, align 4
  %inbuf.addr = alloca ptr, align 8
  %outbuf.addr = alloca ptr, align 8
  %nels.addr = alloca i32, align 4
  store ptr %this, ptr %this.addr, align 8
  store i32 %typ, ptr %typ.addr, align 4
  store ptr %inbuf, ptr %inbuf.addr, align 8
  store ptr %outbuf, ptr %outbuf.addr, align 8
  store i32 %nels, ptr %nels.addr, align 4
  %this1 = load ptr, ptr %this.addr, align 8
  %0 = load i32, ptr %typ.addr, align 4
  %cmp = icmp eq i32 %0, 1
  br i1 %cmp, label %if.then, label %if.else

if.then:                                          ; preds = %entry
  %1 = load ptr, ptr %inbuf.addr, align 8
  %2 = load ptr, ptr %outbuf.addr, align 8
  %3 = load i32, ptr %nels.addr, align 4
  call void @ggml_fp16_to_fp32_row(ptr noundef %1, ptr noundef %2, i32 noundef %3)
  br label %if.end

if.else:                                          ; preds = %entry
  %4 = getelementptr inbounds %class.anon.542, ptr %this1, i32 0, i32 0
  %to_float = getelementptr inbounds %struct.ggml_type_traits_t, ptr %4, i32 0, i32 4
  %5 = load ptr, ptr %to_float, align 8
  %6 = load ptr, ptr %inbuf.addr, align 8
  %7 = load ptr, ptr %outbuf.addr, align 8
  %8 = load i32, ptr %nels.addr, align 4
  call void %5(ptr noundef %6, ptr noundef %7, i32 noundef %8)
  br label %if.end

if.end:                                           ; preds = %if.else, %if.then
  ret void
}

; Function Attrs: mustprogress nounwind uwtable
define linkonce_odr noundef nonnull align 8 dereferenceable(8) ptr @_ZNSt11_Tuple_implILm4EJmEE7_M_headERS0_(ptr noundef nonnull align 8 dereferenceable(8) %__t) #1 comdat align 2 {
entry:
  %__t.addr = alloca ptr, align 8
  store ptr %__t, ptr %__t.addr, align 8
  %0 = load ptr, ptr %__t.addr, align 8
  %call = call noundef nonnull align 8 dereferenceable(8) ptr @_ZNSt10_Head_baseILm4EmLb0EE7_M_headERS0_(ptr noundef nonnull align 8 dereferenceable(8) %0) #3
  ret ptr %call
}

; Function Attrs: mustprogress nounwind uwtable
define linkonce_odr noundef nonnull align 8 dereferenceable(8) ptr @_ZNSt11_Tuple_implILm3EJPfmEE7_M_headERS1_(ptr noundef nonnull align 8 dereferenceable(16) %__t) #1 comdat align 2 {
entry:
  %__t.addr = alloca ptr, align 8
  store ptr %__t, ptr %__t.addr, align 8
  %0 = load ptr, ptr %__t.addr, align 8
  %add.ptr = getelementptr inbounds i8, ptr %0, i64 8
  %call = call noundef nonnull align 8 dereferenceable(8) ptr @_ZNSt10_Head_baseILm3EPfLb0EE7_M_headERS1_(ptr noundef nonnull align 8 dereferenceable(8) %add.ptr) #3
  ret ptr %call
}

; Function Attrs: mustprogress nounwind uwtable
define linkonce_odr noundef nonnull align 8 dereferenceable(8) ptr @_ZNSt11_Tuple_implILm2EJPhPfmEE7_M_headERS2_(ptr noundef nonnull align 8 dereferenceable(24) %__t) #1 comdat align 2 {
entry:
  %__t.addr = alloca ptr, align 8
  store ptr %__t, ptr %__t.addr, align 8
  %0 = load ptr, ptr %__t.addr, align 8
  %add.ptr = getelementptr inbounds i8, ptr %0, i64 16
  %call = call noundef nonnull align 8 dereferenceable(8) ptr @_ZNSt10_Head_baseILm2EPhLb0EE7_M_headERS1_(ptr noundef nonnull align 8 dereferenceable(8) %add.ptr) #3
  ret ptr %call
}

; Function Attrs: mustprogress nounwind uwtable
define linkonce_odr noundef nonnull align 4 dereferenceable(4) ptr @_ZNSt11_Tuple_implILm1EJ9ggml_typePhPfmEE7_M_headERS3_(ptr noundef nonnull align 8 dereferenceable(28) %__t) #1 comdat align 2 {
entry:
  %__t.addr = alloca ptr, align 8
  store ptr %__t, ptr %__t.addr, align 8
  %0 = load ptr, ptr %__t.addr, align 8
  %add.ptr = getelementptr inbounds i8, ptr %0, i64 24
  %call = call noundef nonnull align 4 dereferenceable(4) ptr @_ZNSt10_Head_baseILm1E9ggml_typeLb0EE7_M_headERS1_(ptr noundef nonnull align 4 dereferenceable(4) %add.ptr) #3
  ret ptr %call
}

; Function Attrs: mustprogress nounwind uwtable
define internal noundef nonnull align 8 dereferenceable(72) ptr @"_ZNSt11_Tuple_implILm0EJZL29llama_convert_tensor_internalP11ggml_tensorRSt6vectorI7no_initIfESaIS4_EERS2_ISt6threadSaIS8_EEmiE3$_09ggml_typePhPfmEE7_M_headERSG_"(ptr noundef nonnull align 8 dereferenceable(104) %__t) #1 align 2 {
entry:
  %__t.addr = alloca ptr, align 8
  store ptr %__t, ptr %__t.addr, align 8
  %0 = load ptr, ptr %__t.addr, align 8
  %add.ptr = getelementptr inbounds i8, ptr %0, i64 32
  %call = call noundef nonnull align 8 dereferenceable(72) ptr @"_ZNSt10_Head_baseILm0EZL29llama_convert_tensor_internalP11ggml_tensorRSt6vectorI7no_initIfESaIS4_EERS2_ISt6threadSaIS8_EEmiE3$_0Lb0EE7_M_headERSD_"(ptr noundef nonnull align 8 dereferenceable(72) %add.ptr) #3
  ret ptr %call
}

; Function Attrs: mustprogress uwtable
define internal void @"_ZSt13__invoke_implIvZL29llama_convert_tensor_internalP11ggml_tensorRSt6vectorI7no_initIfESaIS4_EERS2_ISt6threadSaIS8_EEmiE3$_0J9ggml_typePhPfmEET_St14__invoke_otherOT0_DpOT1_"(ptr noundef nonnull align 8 dereferenceable(72) %__f, ptr noundef nonnull align 4 dereferenceable(4) %__args, ptr noundef nonnull align 8 dereferenceable(8) %__args1, ptr noundef nonnull align 8 dereferenceable(8) %__args3, ptr noundef nonnull align 8 dereferenceable(8) %__args5) #2 {
entry:
  %__f.addr = alloca ptr, align 8
  %__args.addr = alloca ptr, align 8
  %__args.addr2 = alloca ptr, align 8
  %__args.addr4 = alloca ptr, align 8
  %__args.addr6 = alloca ptr, align 8
  store ptr %__f, ptr %__f.addr, align 8
  store ptr %__args, ptr %__args.addr, align 8
  store ptr %__args1, ptr %__args.addr2, align 8
  store ptr %__args3, ptr %__args.addr4, align 8
  store ptr %__args5, ptr %__args.addr6, align 8
  %0 = load ptr, ptr %__f.addr, align 8
  %1 = load ptr, ptr %__args.addr, align 8
  %2 = load i32, ptr %1, align 4
  %3 = load ptr, ptr %__args.addr2, align 8
  %4 = load ptr, ptr %3, align 8
  %5 = load ptr, ptr %__args.addr4, align 8
  %6 = load ptr, ptr %5, align 8
  %7 = load ptr, ptr %__args.addr6, align 8
  %8 = load i64, ptr %7, align 8
  %conv = trunc i64 %8 to i32
  call void @"_ZZL29llama_convert_tensor_internalP11ggml_tensorRSt6vectorI7no_initIfESaIS3_EERS1_ISt6threadSaIS7_EEmiENK3$_0clE9ggml_typePhPfi"(ptr noundef nonnull align 8 dereferenceable(72) %0, i32 noundef %2, ptr noundef %4, ptr noundef %6, i32 noundef %conv)
  ret void
}

; Function Attrs: mustprogress nounwind uwtable
define linkonce_odr noundef nonnull align 8 dereferenceable(8) ptr @_ZSt12__get_helperILm4EmJEERT0_RSt11_Tuple_implIXT_EJS0_DpT1_EE(ptr noundef nonnull align 8 dereferenceable(8) %__t) #1 comdat {
entry:
  %__t.addr = alloca ptr, align 8
  store ptr %__t, ptr %__t.addr, align 8
  %0 = load ptr, ptr %__t.addr, align 8
  %call = call noundef nonnull align 8 dereferenceable(8) ptr @_ZNSt11_Tuple_implILm4EJmEE7_M_headERS0_(ptr noundef nonnull align 8 dereferenceable(8) %0) #3
  ret ptr %call
}

; Function Attrs: mustprogress nounwind uwtable
define linkonce_odr noundef nonnull align 8 dereferenceable(8) ptr @_ZSt12__get_helperILm3EPfJmEERT0_RSt11_Tuple_implIXT_EJS1_DpT1_EE(ptr noundef nonnull align 8 dereferenceable(16) %__t) #1 comdat {
entry:
  %__t.addr = alloca ptr, align 8
  store ptr %__t, ptr %__t.addr, align 8
  %0 = load ptr, ptr %__t.addr, align 8
  %call = call noundef nonnull align 8 dereferenceable(8) ptr @_ZNSt11_Tuple_implILm3EJPfmEE7_M_headERS1_(ptr noundef nonnull align 8 dereferenceable(16) %0) #3
  ret ptr %call
}

; Function Attrs: mustprogress nounwind uwtable
define linkonce_odr noundef nonnull align 8 dereferenceable(8) ptr @_ZSt12__get_helperILm2EPhJPfmEERT0_RSt11_Tuple_implIXT_EJS2_DpT1_EE(ptr noundef nonnull align 8 dereferenceable(24) %__t) #1 comdat {
entry:
  %__t.addr = alloca ptr, align 8
  store ptr %__t, ptr %__t.addr, align 8
  %0 = load ptr, ptr %__t.addr, align 8
  %call = call noundef nonnull align 8 dereferenceable(8) ptr @_ZNSt11_Tuple_implILm2EJPhPfmEE7_M_headERS2_(ptr noundef nonnull align 8 dereferenceable(24) %0) #3
  ret ptr %call
}

; Function Attrs: mustprogress nounwind uwtable
define linkonce_odr noundef nonnull align 4 dereferenceable(4) ptr @_ZSt12__get_helperILm1E9ggml_typeJPhPfmEERT0_RSt11_Tuple_implIXT_EJS3_DpT1_EE(ptr noundef nonnull align 8 dereferenceable(28) %__t) #1 comdat {
entry:
  %__t.addr = alloca ptr, align 8
  store ptr %__t, ptr %__t.addr, align 8
  %0 = load ptr, ptr %__t.addr, align 8
  %call = call noundef nonnull align 4 dereferenceable(4) ptr @_ZNSt11_Tuple_implILm1EJ9ggml_typePhPfmEE7_M_headERS3_(ptr noundef nonnull align 8 dereferenceable(28) %0) #3
  ret ptr %call
}

; Function Attrs: mustprogress nounwind uwtable
define internal noundef nonnull align 8 dereferenceable(72) ptr @"_ZSt12__get_helperILm0EZL29llama_convert_tensor_internalP11ggml_tensorRSt6vectorI7no_initIfESaIS4_EERS2_ISt6threadSaIS8_EEmiE3$_0J9ggml_typePhPfmEERT0_RSt11_Tuple_implIXT_EJSG_DpT1_EE"(ptr noundef nonnull align 8 dereferenceable(104) %__t) #1 {
entry:
  %__t.addr = alloca ptr, align 8
  store ptr %__t, ptr %__t.addr, align 8
  %0 = load ptr, ptr %__t.addr, align 8
  %call = call noundef nonnull align 8 dereferenceable(72) ptr @"_ZNSt11_Tuple_implILm0EJZL29llama_convert_tensor_internalP11ggml_tensorRSt6vectorI7no_initIfESaIS4_EERS2_ISt6threadSaIS8_EEmiE3$_09ggml_typePhPfmEE7_M_headERSG_"(ptr noundef nonnull align 8 dereferenceable(104) %0) #3
  ret ptr %call
}

; Function Attrs: mustprogress uwtable
define internal void @"_ZSt8__invokeIZL29llama_convert_tensor_internalP11ggml_tensorRSt6vectorI7no_initIfESaIS4_EERS2_ISt6threadSaIS8_EEmiE3$_0J9ggml_typePhPfmEENSt15__invoke_resultIT_JDpT0_EE4typeEOSH_DpOSI_"(ptr noundef nonnull align 8 dereferenceable(72) %__fn, ptr noundef nonnull align 4 dereferenceable(4) %__args, ptr noundef nonnull align 8 dereferenceable(8) %__args1, ptr noundef nonnull align 8 dereferenceable(8) %__args3, ptr noundef nonnull align 8 dereferenceable(8) %__args5) #2 {
entry:
  %__fn.addr = alloca ptr, align 8
  %__args.addr = alloca ptr, align 8
  %__args.addr2 = alloca ptr, align 8
  %__args.addr4 = alloca ptr, align 8
  %__args.addr6 = alloca ptr, align 8
  store ptr %__fn, ptr %__fn.addr, align 8
  store ptr %__args, ptr %__args.addr, align 8
  store ptr %__args1, ptr %__args.addr2, align 8
  store ptr %__args3, ptr %__args.addr4, align 8
  store ptr %__args5, ptr %__args.addr6, align 8
  %0 = load ptr, ptr %__fn.addr, align 8
  %1 = load ptr, ptr %__args.addr, align 8
  %2 = load ptr, ptr %__args.addr2, align 8
  %3 = load ptr, ptr %__args.addr4, align 8
  %4 = load ptr, ptr %__args.addr6, align 8
  call void @"_ZSt13__invoke_implIvZL29llama_convert_tensor_internalP11ggml_tensorRSt6vectorI7no_initIfESaIS4_EERS2_ISt6threadSaIS8_EEmiE3$_0J9ggml_typePhPfmEET_St14__invoke_otherOT0_DpOT1_"(ptr noundef nonnull align 8 dereferenceable(72) %0, ptr noundef nonnull align 4 dereferenceable(4) %1, ptr noundef nonnull align 8 dereferenceable(8) %2, ptr noundef nonnull align 8 dereferenceable(8) %3, ptr noundef nonnull align 8 dereferenceable(8) %4)
  ret void
}

; Function Attrs: mustprogress nounwind uwtable
define internal noundef nonnull align 8 dereferenceable(8) ptr @"_ZSt3getILm4EJZL29llama_convert_tensor_internalP11ggml_tensorRSt6vectorI7no_initIfESaIS4_EERS2_ISt6threadSaIS8_EEmiE3$_09ggml_typePhPfmEEONSt13tuple_elementIXT_ESt5tupleIJDpT0_EEE4typeEOSK_"(ptr noundef nonnull align 8 dereferenceable(104) %__t) #1 {
entry:
  %__t.addr = alloca ptr, align 8
  store ptr %__t, ptr %__t.addr, align 8
  %0 = load ptr, ptr %__t.addr, align 8
  %call = call noundef nonnull align 8 dereferenceable(8) ptr @_ZSt12__get_helperILm4EmJEERT0_RSt11_Tuple_implIXT_EJS0_DpT1_EE(ptr noundef nonnull align 8 dereferenceable(8) %0) #3
  ret ptr %call
}

; Function Attrs: mustprogress nounwind uwtable
define internal noundef nonnull align 8 dereferenceable(8) ptr @"_ZSt3getILm3EJZL29llama_convert_tensor_internalP11ggml_tensorRSt6vectorI7no_initIfESaIS4_EERS2_ISt6threadSaIS8_EEmiE3$_09ggml_typePhPfmEEONSt13tuple_elementIXT_ESt5tupleIJDpT0_EEE4typeEOSK_"(ptr noundef nonnull align 8 dereferenceable(104) %__t) #1 {
entry:
  %__t.addr = alloca ptr, align 8
  store ptr %__t, ptr %__t.addr, align 8
  %0 = load ptr, ptr %__t.addr, align 8
  %call = call noundef nonnull align 8 dereferenceable(8) ptr @_ZSt12__get_helperILm3EPfJmEERT0_RSt11_Tuple_implIXT_EJS1_DpT1_EE(ptr noundef nonnull align 8 dereferenceable(16) %0) #3
  ret ptr %call
}

; Function Attrs: mustprogress nounwind uwtable
define internal noundef nonnull align 8 dereferenceable(8) ptr @"_ZSt3getILm2EJZL29llama_convert_tensor_internalP11ggml_tensorRSt6vectorI7no_initIfESaIS4_EERS2_ISt6threadSaIS8_EEmiE3$_09ggml_typePhPfmEEONSt13tuple_elementIXT_ESt5tupleIJDpT0_EEE4typeEOSK_"(ptr noundef nonnull align 8 dereferenceable(104) %__t) #1 {
entry:
  %__t.addr = alloca ptr, align 8
  store ptr %__t, ptr %__t.addr, align 8
  %0 = load ptr, ptr %__t.addr, align 8
  %call = call noundef nonnull align 8 dereferenceable(8) ptr @_ZSt12__get_helperILm2EPhJPfmEERT0_RSt11_Tuple_implIXT_EJS2_DpT1_EE(ptr noundef nonnull align 8 dereferenceable(24) %0) #3
  ret ptr %call
}

; Function Attrs: mustprogress nounwind uwtable
define internal noundef nonnull align 4 dereferenceable(4) ptr @"_ZSt3getILm1EJZL29llama_convert_tensor_internalP11ggml_tensorRSt6vectorI7no_initIfESaIS4_EERS2_ISt6threadSaIS8_EEmiE3$_09ggml_typePhPfmEEONSt13tuple_elementIXT_ESt5tupleIJDpT0_EEE4typeEOSK_"(ptr noundef nonnull align 8 dereferenceable(104) %__t) #1 {
entry:
  %__t.addr = alloca ptr, align 8
  store ptr %__t, ptr %__t.addr, align 8
  %0 = load ptr, ptr %__t.addr, align 8
  %call = call noundef nonnull align 4 dereferenceable(4) ptr @_ZSt12__get_helperILm1E9ggml_typeJPhPfmEERT0_RSt11_Tuple_implIXT_EJS3_DpT1_EE(ptr noundef nonnull align 8 dereferenceable(28) %0) #3
  ret ptr %call
}

; Function Attrs: mustprogress nounwind uwtable
define internal noundef nonnull align 8 dereferenceable(72) ptr @"_ZSt3getILm0EJZL29llama_convert_tensor_internalP11ggml_tensorRSt6vectorI7no_initIfESaIS4_EERS2_ISt6threadSaIS8_EEmiE3$_09ggml_typePhPfmEEONSt13tuple_elementIXT_ESt5tupleIJDpT0_EEE4typeEOSK_"(ptr noundef nonnull align 8 dereferenceable(104) %__t) #1 {
entry:
  %__t.addr = alloca ptr, align 8
  store ptr %__t, ptr %__t.addr, align 8
  %0 = load ptr, ptr %__t.addr, align 8
  %call = call noundef nonnull align 8 dereferenceable(72) ptr @"_ZSt12__get_helperILm0EZL29llama_convert_tensor_internalP11ggml_tensorRSt6vectorI7no_initIfESaIS4_EERS2_ISt6threadSaIS8_EEmiE3$_0J9ggml_typePhPfmEERT0_RSt11_Tuple_implIXT_EJSG_DpT1_EE"(ptr noundef nonnull align 8 dereferenceable(104) %0) #3
  ret ptr %call
}

; Function Attrs: mustprogress uwtable
define internal void @"_ZNSt6thread8_InvokerISt5tupleIJZL29llama_convert_tensor_internalP11ggml_tensorRSt6vectorI7no_initIfESaIS6_EERS4_IS_SaIS_EEmiE3$_09ggml_typePhPfmEEE9_M_invokeIJLm0ELm1ELm2ELm3ELm4EEEEvSt12_Index_tupleIJXspT_EEE"(ptr noundef nonnull align 8 dereferenceable(104) %this) #2 align 2 {
entry:
  %this.addr = alloca ptr, align 8
  store ptr %this, ptr %this.addr, align 8
  %this1 = load ptr, ptr %this.addr, align 8
  %_M_t = getelementptr inbounds %"struct.std::thread::_Invoker", ptr %this1, i32 0, i32 0
  %call = call noundef nonnull align 8 dereferenceable(72) ptr @"_ZSt3getILm0EJZL29llama_convert_tensor_internalP11ggml_tensorRSt6vectorI7no_initIfESaIS4_EERS2_ISt6threadSaIS8_EEmiE3$_09ggml_typePhPfmEEONSt13tuple_elementIXT_ESt5tupleIJDpT0_EEE4typeEOSK_"(ptr noundef nonnull align 8 dereferenceable(104) %_M_t) #3
  %_M_t2 = getelementptr inbounds %"struct.std::thread::_Invoker", ptr %this1, i32 0, i32 0
  %call3 = call noundef nonnull align 4 dereferenceable(4) ptr @"_ZSt3getILm1EJZL29llama_convert_tensor_internalP11ggml_tensorRSt6vectorI7no_initIfESaIS4_EERS2_ISt6threadSaIS8_EEmiE3$_09ggml_typePhPfmEEONSt13tuple_elementIXT_ESt5tupleIJDpT0_EEE4typeEOSK_"(ptr noundef nonnull align 8 dereferenceable(104) %_M_t2) #3
  %_M_t4 = getelementptr inbounds %"struct.std::thread::_Invoker", ptr %this1, i32 0, i32 0
  %call5 = call noundef nonnull align 8 dereferenceable(8) ptr @"_ZSt3getILm2EJZL29llama_convert_tensor_internalP11ggml_tensorRSt6vectorI7no_initIfESaIS4_EERS2_ISt6threadSaIS8_EEmiE3$_09ggml_typePhPfmEEONSt13tuple_elementIXT_ESt5tupleIJDpT0_EEE4typeEOSK_"(ptr noundef nonnull align 8 dereferenceable(104) %_M_t4) #3
  %_M_t6 = getelementptr inbounds %"struct.std::thread::_Invoker", ptr %this1, i32 0, i32 0
  %call7 = call noundef nonnull align 8 dereferenceable(8) ptr @"_ZSt3getILm3EJZL29llama_convert_tensor_internalP11ggml_tensorRSt6vectorI7no_initIfESaIS4_EERS2_ISt6threadSaIS8_EEmiE3$_09ggml_typePhPfmEEONSt13tuple_elementIXT_ESt5tupleIJDpT0_EEE4typeEOSK_"(ptr noundef nonnull align 8 dereferenceable(104) %_M_t6) #3
  %_M_t8 = getelementptr inbounds %"struct.std::thread::_Invoker", ptr %this1, i32 0, i32 0
  %call9 = call noundef nonnull align 8 dereferenceable(8) ptr @"_ZSt3getILm4EJZL29llama_convert_tensor_internalP11ggml_tensorRSt6vectorI7no_initIfESaIS4_EERS2_ISt6threadSaIS8_EEmiE3$_09ggml_typePhPfmEEONSt13tuple_elementIXT_ESt5tupleIJDpT0_EEE4typeEOSK_"(ptr noundef nonnull align 8 dereferenceable(104) %_M_t8) #3
  call void @"_ZSt8__invokeIZL29llama_convert_tensor_internalP11ggml_tensorRSt6vectorI7no_initIfESaIS4_EERS2_ISt6threadSaIS8_EEmiE3$_0J9ggml_typePhPfmEENSt15__invoke_resultIT_JDpT0_EE4typeEOSH_DpOSI_"(ptr noundef nonnull align 8 dereferenceable(72) %call, ptr noundef nonnull align 4 dereferenceable(4) %call3, ptr noundef nonnull align 8 dereferenceable(8) %call5, ptr noundef nonnull align 8 dereferenceable(8) %call7, ptr noundef nonnull align 8 dereferenceable(8) %call9)
  ret void
}

; Function Attrs: mustprogress uwtable
define internal void @"_ZNSt6thread8_InvokerISt5tupleIJZL29llama_convert_tensor_internalP11ggml_tensorRSt6vectorI7no_initIfESaIS6_EERS4_IS_SaIS_EEmiE3$_09ggml_typePhPfmEEEclEv"(ptr noundef nonnull align 8 dereferenceable(104) %this) #2 align 2 {
entry:
  %this.addr = alloca ptr, align 8
  store ptr %this, ptr %this.addr, align 8
  %this1 = load ptr, ptr %this.addr, align 8
  call void @"_ZNSt6thread8_InvokerISt5tupleIJZL29llama_convert_tensor_internalP11ggml_tensorRSt6vectorI7no_initIfESaIS6_EERS4_IS_SaIS_EEmiE3$_09ggml_typePhPfmEEE9_M_invokeIJLm0ELm1ELm2ELm3ELm4EEEEvSt12_Index_tupleIJXspT_EEE"(ptr noundef nonnull align 8 dereferenceable(104) %this1)
  ret void
}

; Function Attrs: mustprogress uwtable
define internal void @"_ZNSt6thread11_State_implINS_8_InvokerISt5tupleIJZL29llama_convert_tensor_internalP11ggml_tensorRSt6vectorI7no_initIfESaIS7_EERS5_IS_SaIS_EEmiE3$_09ggml_typePhPfmEEEEE6_M_runEv"(ptr noundef nonnull align 8 dereferenceable(112) %this) unnamed_addr #2 align 2 {
entry:
  %this.addr = alloca ptr, align 8
  store ptr %this, ptr %this.addr, align 8
  %this1 = load ptr, ptr %this.addr, align 8
  %_M_func = getelementptr inbounds %"struct.std::thread::_State_impl", ptr %this1, i32 0, i32 1
  call void @"_ZNSt6thread8_InvokerISt5tupleIJZL29llama_convert_tensor_internalP11ggml_tensorRSt6vectorI7no_initIfESaIS6_EERS4_IS_SaIS_EEmiE3$_09ggml_typePhPfmEEEclEv"(ptr noundef nonnull align 8 dereferenceable(104) %_M_func)
  ret void
}