; Function Attrs: mustprogress uwtable
define internal void @"_ZNSt6thread11_State_implINS_8_InvokerISt5tupleIJZL29llama_convert_tensor_internalP11ggml_tensorRSt6vectorI7no_initIfESaIS7_EERS5_IS_SaIS_EEmiE3$_09ggml_typePhPfmEEEEE6_M_runEv"(ptr nocapture noundef nonnull readonly align 8 dereferenceable(112) %this) unnamed_addr #2 align 2 {
entry:
  %_M_func = getelementptr inbounds i8, ptr %this, i64 8
  %add.ptr.i.i.i1.i.i = getelementptr inbounds i8, ptr %this, i64 32
  %add.ptr.i.i.i2.i.i = getelementptr inbounds i8, ptr %this, i64 24
  %add.ptr.i.i.i3.i.i = getelementptr inbounds i8, ptr %this, i64 16
  %call3.val.i.i = load i32, ptr %add.ptr.i.i.i1.i.i, align 8
  %call5.val.i.i = load ptr, ptr %add.ptr.i.i.i2.i.i, align 8
  %call7.val.i.i = load ptr, ptr %add.ptr.i.i.i3.i.i, align 8
  %call9.val.i.i = load i64, ptr %_M_func, align 8
  %conv.i.i.i.i = trunc i64 %call9.val.i.i to i32
  %cmp.i.i.i.i.i = icmp eq i32 %call3.val.i.i, 1
  br i1 %cmp.i.i.i.i.i, label %if.then.i.i.i.i.i, label %if.else.i.i.i.i.i

if.then.i.i.i.i.i:                                ; preds = %entry
  tail call void @ggml_fp16_to_fp32_row(ptr noundef %call5.val.i.i, ptr noundef %call7.val.i.i, i32 noundef %conv.i.i.i.i)
  br label %"_ZNSt6thread8_InvokerISt5tupleIJZL29llama_convert_tensor_internalP11ggml_tensorRSt6vectorI7no_initIfESaIS6_EERS4_IS_SaIS_EEmiE3$_09ggml_typePhPfmEEEclEv.exit"

if.else.i.i.i.i.i:                                ; preds = %entry
  %0 = getelementptr inbounds i8, ptr %this, i64 72
  %call.val.i.i = load ptr, ptr %0, align 8
  tail call void %call.val.i.i(ptr noundef %call5.val.i.i, ptr noundef %call7.val.i.i, i32 noundef %conv.i.i.i.i)
  br label %"_ZNSt6thread8_InvokerISt5tupleIJZL29llama_convert_tensor_internalP11ggml_tensorRSt6vectorI7no_initIfESaIS6_EERS4_IS_SaIS_EEmiE3$_09ggml_typePhPfmEEEclEv.exit"

"_ZNSt6thread8_InvokerISt5tupleIJZL29llama_convert_tensor_internalP11ggml_tensorRSt6vectorI7no_initIfESaIS6_EERS4_IS_SaIS_EEmiE3$_09ggml_typePhPfmEEEclEv.exit": ; preds = %if.then.i.i.i.i.i, %if.else.i.i.i.i.i
  ret void
}